target datalayout = "e-m:e-p270:32:32-p271:32:32-p272:64:64-i64:64-i128:128-f80:128-n8:16:32:64-S128"
target triple = "x86_64-pc-linux-gnu"

%struct.archive_read_disk = type { %struct.archive, ptr, i8, i8, ptr, ptr, ptr, ptr, i32, ptr, ptr, ptr, ptr, ptr, ptr, ptr, ptr, ptr, ptr, ptr }
%struct.archive = type { i32, i32, ptr, i32, ptr, i32, i32, ptr, %struct.archive_string, ptr, i32, i32, ptr, ptr, i64, i64, i64, i8, i64 }
%struct.archive_string = type { ptr, i64, i64 }

@.str.3 = private unnamed_addr constant [35 x i8] c"archive_read_disk_set_uname_lookup\00", align 1

; Function Attrs: nounwind uwtable
define dso_local i32 @archive_read_disk_set_uname_lookup(ptr noundef %0, ptr noundef %1, ptr noundef %2, ptr noundef %3) #0 {
  %5 = alloca i32, align 4
  %6 = alloca ptr, align 8
  %7 = alloca ptr, align 8
  %8 = alloca ptr, align 8
  %9 = alloca ptr, align 8
  %10 = alloca ptr, align 8
  %11 = alloca i32, align 4
  store ptr %0, ptr %6, align 8
  store ptr %1, ptr %7, align 8
  store ptr %2, ptr %8, align 8
  store ptr %3, ptr %9, align 8
  %12 = load ptr, ptr %6, align 8
  store ptr %12, ptr %10, align 8
  br label %13

13:                                               ; preds = %4
  %14 = load ptr, ptr %10, align 8
  %15 = getelementptr inbounds %struct.archive_read_disk, ptr %14, i32 0, i32 0
  %16 = call i32 @__archive_check_magic(ptr noundef %15, i32 noundef 195932357, i32 noundef 32767, ptr noundef @.str.3)
  store i32 %16, ptr %11, align 4
  %17 = load i32, ptr %11, align 4
  %18 = icmp eq i32 %17, -30
  br i1 %18, label %19, label %20

19:                                               ; preds = %13
  store i32 -30, ptr %5, align 4
  br label %48

20:                                               ; preds = %13
  br label %21

21:                                               ; preds = %20
  %22 = load ptr, ptr %10, align 8
  %23 = getelementptr inbounds %struct.archive_read_disk, ptr %22, i32 0, i32 13
  %24 = load ptr, ptr %23, align 8
  %25 = icmp ne ptr %24, null
  br i1 %25, label %26, label %38

26:                                               ; preds = %21
  %27 = load ptr, ptr %10, align 8
  %28 = getelementptr inbounds %struct.archive_read_disk, ptr %27, i32 0, i32 14
  %29 = load ptr, ptr %28, align 8
  %30 = icmp ne ptr %29, null
  br i1 %30, label %31, label %38

31:                                               ; preds = %26
  %32 = load ptr, ptr %10, align 8
  %33 = getelementptr inbounds %struct.archive_read_disk, ptr %32, i32 0, i32 13
  %34 = load ptr, ptr %33, align 8
  %35 = load ptr, ptr %10, align 8
  %36 = getelementptr inbounds %struct.archive_read_disk, ptr %35, i32 0, i32 14
  %37 = load ptr, ptr %36, align 8
  call void %34(ptr noundef %37)
  br label %38

38:                                               ; preds = %31, %26, %21
  %39 = load ptr, ptr %8, align 8
  %40 = load ptr, ptr %10, align 8
  %41 = getelementptr inbounds %struct.archive_read_disk, ptr %40, i32 0, i32 12
  store ptr %39, ptr %41, align 8
  %42 = load ptr, ptr %9, align 8
  %43 = load ptr, ptr %10, align 8
  %44 = getelementptr inbounds %struct.archive_read_disk, ptr %43, i32 0, i32 13
  store ptr %42, ptr %44, align 8
  %45 = load ptr, ptr %7, align 8
  %46 = load ptr, ptr %10, align 8
  %47 = getelementptr inbounds %struct.archive_read_disk, ptr %46, i32 0, i32 14
  store ptr %45, ptr %47, align 8
  store i32 0, ptr %5, align 4
  br label %48

48:                                               ; preds = %38, %19
  %49 = load i32, ptr %5, align 4
  ret i32 %49
}